target datalayout = "e-m:e-p270:32:32-p271:32:32-p272:64:64-i64:64-i128:128-f80:128-n8:16:32:64-S128"
target triple = "x86_64-pc-linux-gnu"

%"class.duckdb_re2::Prog" = type { i8, i8, i8, i8, i8, i32, i32, i32, i32, i8, i64, %union.anon, i32, [8 x i32], %"class.duckdb_re2::PODArray.4", i64, %"class.duckdb_re2::PODArray.13", %"class.duckdb_re2::PODArray.22", i64, ptr, ptr, [256 x i8], %"struct.std::once_flag", %"struct.std::once_flag" }
%union.anon = type { ptr }
%"class.duckdb_re2::PODArray.4" = type { %"class.std::unique_ptr.5" }
%"class.std::unique_ptr.5" = type { %"struct.std::__uniq_ptr_data.6" }
%"struct.std::__uniq_ptr_data.6" = type { %"class.std::__uniq_ptr_impl.7" }
%"class.std::__uniq_ptr_impl.7" = type { %"class.std::tuple.8" }
%"class.std::tuple.8" = type { %"struct.std::_Tuple_impl.9" }
%"struct.std::_Tuple_impl.9" = type { %"struct.std::_Tuple_impl.10", %"struct.std::_Head_base.12" }
%"struct.std::_Tuple_impl.10" = type { %"struct.std::_Head_base.11" }
%"struct.std::_Head_base.11" = type { %"struct.duckdb_re2::PODArray<unsigned short>::Deleter" }
%"struct.duckdb_re2::PODArray<unsigned short>::Deleter" = type { i32 }
%"struct.std::_Head_base.12" = type { ptr }
%"class.duckdb_re2::PODArray.13" = type { %"class.std::unique_ptr.14" }
%"class.std::unique_ptr.14" = type { %"struct.std::__uniq_ptr_data.15" }
%"struct.std::__uniq_ptr_data.15" = type { %"class.std::__uniq_ptr_impl.16" }
%"class.std::__uniq_ptr_impl.16" = type { %"class.std::tuple.17" }
%"class.std::tuple.17" = type { %"struct.std::_Tuple_impl.18" }
%"struct.std::_Tuple_impl.18" = type { %"struct.std::_Tuple_impl.19", %"struct.std::_Head_base.21" }
%"struct.std::_Tuple_impl.19" = type { %"struct.std::_Head_base.20" }
%"struct.std::_Head_base.20" = type { %"struct.duckdb_re2::PODArray<duckdb_re2::Prog::Inst>::Deleter" }
%"struct.duckdb_re2::PODArray<duckdb_re2::Prog::Inst>::Deleter" = type { i32 }
%"struct.std::_Head_base.21" = type { ptr }
%"class.duckdb_re2::PODArray.22" = type { %"class.std::unique_ptr.23" }
%"class.std::unique_ptr.23" = type { %"struct.std::__uniq_ptr_data.24" }
%"struct.std::__uniq_ptr_data.24" = type { %"class.std::__uniq_ptr_impl.25" }
%"class.std::__uniq_ptr_impl.25" = type { %"class.std::tuple.26" }
%"class.std::tuple.26" = type { %"struct.std::_Tuple_impl.27" }
%"struct.std::_Tuple_impl.27" = type { %"struct.std::_Tuple_impl.28", %"struct.std::_Head_base.30" }
%"struct.std::_Tuple_impl.28" = type { %"struct.std::_Head_base.29" }
%"struct.std::_Head_base.29" = type { %"struct.duckdb_re2::PODArray<unsigned char>::Deleter" }
%"struct.duckdb_re2::PODArray<unsigned char>::Deleter" = type { i32 }
%"struct.std::_Head_base.30" = type { ptr }
%"struct.std::once_flag" = type { i32 }
%class.anon = type { i8 }
%class.anon.37 = type { i8 }
%class.anon.39 = type { i8 }
%class.anon.88 = type { ptr, ptr }
%"struct.std::once_flag::_Prepare_execution" = type { i8 }
%class.anon.91 = type { ptr, ptr }
%class.anon.94 = type { ptr, ptr }
%class.anon.89 = type { i8 }
%class.anon.92 = type { i8 }
%class.anon.95 = type { i8 }

@_ZSt15__once_callable = external thread_local global ptr, align 8
@_ZSt11__once_call = external thread_local global ptr, align 8

; Function Attrs: inlinehint mustprogress nounwind uwtable
define internal noundef ptr @"_ZZNSt9once_flag18_Prepare_executionC1IZSt9call_onceIZN10duckdb_re24Prog6GetDFAENS4_9MatchKindEE3$_2JPS4_EEvRS_OT_DpOT0_EUlvE_EERS9_ENKUlvE_cvPFvvEEv"(ptr noundef nonnull align 1 dereferenceable(1) %0) #6 align 2 {
  %2 = alloca ptr, align 8
  store ptr %0, ptr %2, align 8, !tbaa !145
  ret ptr @"_ZZNSt9once_flag18_Prepare_executionC1IZSt9call_onceIZN10duckdb_re24Prog6GetDFAENS4_9MatchKindEE3$_2JPS4_EEvRS_OT_DpOT0_EUlvE_EERS9_ENUlvE_8__invokeEv"
}

; Function Attrs: inlinehint mustprogress nounwind uwtable
define internal noundef ptr @"_ZZNSt9once_flag18_Prepare_executionC1IZSt9call_onceIZN10duckdb_re24Prog6GetDFAENS4_9MatchKindEE3$_1JPS4_EEvRS_OT_DpOT0_EUlvE_EERS9_ENKUlvE_cvPFvvEEv"(ptr noundef nonnull align 1 dereferenceable(1) %0) #6 align 2 {
  %2 = alloca ptr, align 8
  store ptr %0, ptr %2, align 8, !tbaa !145
  ret ptr @"_ZZNSt9once_flag18_Prepare_executionC1IZSt9call_onceIZN10duckdb_re24Prog6GetDFAENS4_9MatchKindEE3$_1JPS4_EEvRS_OT_DpOT0_EUlvE_EERS9_ENUlvE_8__invokeEv"
}

; Function Attrs: inlinehint mustprogress nounwind uwtable
define internal noundef i32 @_ZL18__gthread_active_pv() #6 {
  ret i32 1
}

; Function Attrs: inlinehint mustprogress nounwind uwtable
define internal noundef ptr @"_ZZNSt9once_flag18_Prepare_executionC1IZSt9call_onceIZN10duckdb_re24Prog6GetDFAENS4_9MatchKindEE3$_0JPS4_EEvRS_OT_DpOT0_EUlvE_EERS9_ENKUlvE_cvPFvvEEv"(ptr noundef nonnull align 1 dereferenceable(1) %0) #6 align 2 {
  %2 = alloca ptr, align 8
  store ptr %0, ptr %2, align 8, !tbaa !145
  ret ptr @"_ZZNSt9once_flag18_Prepare_executionC1IZSt9call_onceIZN10duckdb_re24Prog6GetDFAENS4_9MatchKindEE3$_0JPS4_EEvRS_OT_DpOT0_EUlvE_EERS9_ENUlvE_8__invokeEv"
}

; Function Attrs: mustprogress nounwind uwtable
define internal void @"_ZNSt9once_flag18_Prepare_executionC2IZSt9call_onceIZN10duckdb_re24Prog6GetDFAENS4_9MatchKindEE3$_2JPS4_EEvRS_OT_DpOT0_EUlvE_EERS9_"(ptr noundef nonnull align 1 dereferenceable(1) %0, ptr noundef nonnull align 8 dereferenceable(16) %1) unnamed_addr #0 align 2 {
  %3 = alloca ptr, align 8
  %4 = alloca ptr, align 8
  %5 = alloca %class.anon.95, align 1
  store ptr %0, ptr %3, align 8, !tbaa !554
  store ptr %1, ptr %4, align 8, !tbaa !145
  %6 = load ptr, ptr %4, align 8, !tbaa !145
  %7 = call align 8 ptr @llvm.threadlocal.address.p0(ptr align 8 @_ZSt15__once_callable)
  store ptr %6, ptr %7, align 8, !tbaa !145
  call void @llvm.lifetime.start.p0(i64 1, ptr %5) #17
  %8 = call noundef ptr @"_ZZNSt9once_flag18_Prepare_executionC1IZSt9call_onceIZN10duckdb_re24Prog6GetDFAENS4_9MatchKindEE3$_2JPS4_EEvRS_OT_DpOT0_EUlvE_EERS9_ENKUlvE_cvPFvvEEv"(ptr noundef nonnull align 1 dereferenceable(1) %5) #17
  %9 = call align 8 ptr @llvm.threadlocal.address.p0(ptr align 8 @_ZSt11__once_call)
  store ptr %8, ptr %9, align 8, !tbaa !145
  call void @llvm.lifetime.end.p0(i64 1, ptr %5) #17
  ret void
}

; Function Attrs: mustprogress nounwind uwtable
define internal void @"_ZNSt9once_flag18_Prepare_executionC2IZSt9call_onceIZN10duckdb_re24Prog6GetDFAENS4_9MatchKindEE3$_1JPS4_EEvRS_OT_DpOT0_EUlvE_EERS9_"(ptr noundef nonnull align 1 dereferenceable(1) %0, ptr noundef nonnull align 8 dereferenceable(16) %1) unnamed_addr #0 align 2 {
  %3 = alloca ptr, align 8
  %4 = alloca ptr, align 8
  %5 = alloca %class.anon.92, align 1
  store ptr %0, ptr %3, align 8, !tbaa !554
  store ptr %1, ptr %4, align 8, !tbaa !145
  %6 = load ptr, ptr %4, align 8, !tbaa !145
  %7 = call align 8 ptr @llvm.threadlocal.address.p0(ptr align 8 @_ZSt15__once_callable)
  store ptr %6, ptr %7, align 8, !tbaa !145
  call void @llvm.lifetime.start.p0(i64 1, ptr %5) #17
  %8 = call noundef ptr @"_ZZNSt9once_flag18_Prepare_executionC1IZSt9call_onceIZN10duckdb_re24Prog6GetDFAENS4_9MatchKindEE3$_1JPS4_EEvRS_OT_DpOT0_EUlvE_EERS9_ENKUlvE_cvPFvvEEv"(ptr noundef nonnull align 1 dereferenceable(1) %5) #17
  %9 = call align 8 ptr @llvm.threadlocal.address.p0(ptr align 8 @_ZSt11__once_call)
  store ptr %8, ptr %9, align 8, !tbaa !145
  call void @llvm.lifetime.end.p0(i64 1, ptr %5) #17
  ret void
}

; Function Attrs: mustprogress nounwind uwtable
define linkonce_odr void @_ZNSt9once_flag18_Prepare_executionD2Ev(ptr noundef nonnull align 1 dereferenceable(1) %0) unnamed_addr #0 comdat align 2 {
  %2 = alloca ptr, align 8
  store ptr %0, ptr %2, align 8, !tbaa !554
  %3 = call align 8 ptr @llvm.threadlocal.address.p0(ptr align 8 @_ZSt15__once_callable)
  store ptr null, ptr %3, align 8, !tbaa !145
  %4 = call align 8 ptr @llvm.threadlocal.address.p0(ptr align 8 @_ZSt11__once_call)
  store ptr null, ptr %4, align 8, !tbaa !145
  ret void
}

; Function Attrs: inlinehint mustprogress uwtable
define internal noundef i32 @_ZL14__gthread_oncePiPFvvE(ptr noundef %0, ptr noundef %1) #2 {
  %3 = alloca i32, align 4
  %4 = alloca ptr, align 8
  %5 = alloca ptr, align 8
  store ptr %0, ptr %4, align 8, !tbaa !113
  store ptr %1, ptr %5, align 8, !tbaa !145
  %6 = call noundef i32 @_ZL18__gthread_active_pv()
  %7 = icmp ne i32 %6, 0
  br i1 %7, label %8, label %12

8:                                                ; preds = %2
  %9 = load ptr, ptr %4, align 8, !tbaa !113
  %10 = load ptr, ptr %5, align 8, !tbaa !145
  %11 = call i32 @pthread_once(ptr noundef %9, ptr noundef %10)
  store i32 %11, ptr %3, align 4
  br label %13

12:                                               ; preds = %2
  store i32 -1, ptr %3, align 4
  br label %13

13:                                               ; preds = %12, %8
  %14 = load i32, ptr %3, align 4
  ret i32 %14
}

; Function Attrs: mustprogress nounwind uwtable
define internal void @"_ZNSt9once_flag18_Prepare_executionC2IZSt9call_onceIZN10duckdb_re24Prog6GetDFAENS4_9MatchKindEE3$_0JPS4_EEvRS_OT_DpOT0_EUlvE_EERS9_"(ptr noundef nonnull align 1 dereferenceable(1) %0, ptr noundef nonnull align 8 dereferenceable(16) %1) unnamed_addr #0 align 2 {
  %3 = alloca ptr, align 8
  %4 = alloca ptr, align 8
  %5 = alloca %class.anon.89, align 1
  store ptr %0, ptr %3, align 8, !tbaa !554
  store ptr %1, ptr %4, align 8, !tbaa !145
  %6 = load ptr, ptr %4, align 8, !tbaa !145
  %7 = call align 8 ptr @llvm.threadlocal.address.p0(ptr align 8 @_ZSt15__once_callable)
  store ptr %6, ptr %7, align 8, !tbaa !145
  call void @llvm.lifetime.start.p0(i64 1, ptr %5) #17
  %8 = call noundef ptr @"_ZZNSt9once_flag18_Prepare_executionC1IZSt9call_onceIZN10duckdb_re24Prog6GetDFAENS4_9MatchKindEE3$_0JPS4_EEvRS_OT_DpOT0_EUlvE_EERS9_ENKUlvE_cvPFvvEEv"(ptr noundef nonnull align 1 dereferenceable(1) %5) #17
  %9 = call align 8 ptr @llvm.threadlocal.address.p0(ptr align 8 @_ZSt11__once_call)
  store ptr %8, ptr %9, align 8, !tbaa !145
  call void @llvm.lifetime.end.p0(i64 1, ptr %5) #17
  ret void
}

; Function Attrs: mustprogress uwtable
define internal void @"_ZSt9call_onceIZN10duckdb_re24Prog6GetDFAENS1_9MatchKindEE3$_2JPS1_EEvRSt9once_flagOT_DpOT0_"(ptr noundef nonnull align 4 dereferenceable(4) %0, ptr noundef nonnull align 1 dereferenceable(1) %1, ptr noundef nonnull align 8 dereferenceable(8) %2) #1 personality ptr @__gxx_personality_v0 {
  %4 = alloca ptr, align 8
  %5 = alloca ptr, align 8
  %6 = alloca ptr, align 8
  %7 = alloca %class.anon.94, align 8
  %8 = alloca %"struct.std::once_flag::_Prepare_execution", align 1
  %9 = alloca i32, align 4
  %10 = alloca ptr, align 8
  %11 = alloca i32, align 4
  store ptr %0, ptr %4, align 8, !tbaa !254
  store ptr %1, ptr %5, align 8, !tbaa !145
  store ptr %2, ptr %6, align 8, !tbaa !256
  call void @llvm.lifetime.start.p0(i64 16, ptr %7) #17
  %12 = getelementptr inbounds nuw %class.anon.94, ptr %7, i32 0, i32 0
  %13 = load ptr, ptr %5, align 8, !tbaa !145
  store ptr %13, ptr %12, align 8, !tbaa !145
  %14 = getelementptr inbounds nuw %class.anon.94, ptr %7, i32 0, i32 1
  %15 = load ptr, ptr %6, align 8, !tbaa !256
  store ptr %15, ptr %14, align 8, !tbaa !256
  call void @llvm.lifetime.start.p0(i64 1, ptr %8) #17
  call void @"_ZNSt9once_flag18_Prepare_executionC2IZSt9call_onceIZN10duckdb_re24Prog6GetDFAENS4_9MatchKindEE3$_2JPS4_EEvRS_OT_DpOT0_EUlvE_EERS9_"(ptr noundef nonnull align 1 dereferenceable(1) %8, ptr noundef nonnull align 8 dereferenceable(16) %7)
  call void @llvm.lifetime.start.p0(i64 4, ptr %9) #17
  %16 = load ptr, ptr %4, align 8, !tbaa !254
  %17 = getelementptr inbounds nuw %"struct.std::once_flag", ptr %16, i32 0, i32 0
  %18 = invoke noundef i32 @_ZL14__gthread_oncePiPFvvE(ptr noundef %17, ptr noundef @__once_proxy)
          to label %19 unwind label %25

19:                                               ; preds = %3
  store i32 %18, ptr %9, align 4, !tbaa !46
  %20 = load i32, ptr %9, align 4, !tbaa !46
  %21 = icmp ne i32 %20, 0
  br i1 %21, label %22, label %29

22:                                               ; preds = %19
  %23 = load i32, ptr %9, align 4, !tbaa !46
  invoke void @_ZSt20__throw_system_errori(i32 noundef %23) #20
          to label %24 unwind label %25

24:                                               ; preds = %22
  unreachable

25:                                               ; preds = %22, %3
  %26 = landingpad { ptr, i32 }
          cleanup
  %27 = extractvalue { ptr, i32 } %26, 0
  store ptr %27, ptr %10, align 8
  %28 = extractvalue { ptr, i32 } %26, 1
  store i32 %28, ptr %11, align 4
  call void @llvm.lifetime.end.p0(i64 4, ptr %9) #17
  call void @_ZNSt9once_flag18_Prepare_executionD2Ev(ptr noundef nonnull align 1 dereferenceable(1) %8) #17
  call void @llvm.lifetime.end.p0(i64 1, ptr %8) #17
  call void @llvm.lifetime.end.p0(i64 16, ptr %7) #17
  br label %30

29:                                               ; preds = %19
  call void @llvm.lifetime.end.p0(i64 4, ptr %9) #17
  call void @_ZNSt9once_flag18_Prepare_executionD2Ev(ptr noundef nonnull align 1 dereferenceable(1) %8) #17
  call void @llvm.lifetime.end.p0(i64 1, ptr %8) #17
  call void @llvm.lifetime.end.p0(i64 16, ptr %7) #17
  ret void

30:                                               ; preds = %25
  %31 = load ptr, ptr %10, align 8
  %32 = load i32, ptr %11, align 4
  %33 = insertvalue { ptr, i32 } poison, ptr %31, 0
  %34 = insertvalue { ptr, i32 } %33, i32 %32, 1
  resume { ptr, i32 } %34
}

; Function Attrs: mustprogress uwtable
define internal void @"_ZSt9call_onceIZN10duckdb_re24Prog6GetDFAENS1_9MatchKindEE3$_1JPS1_EEvRSt9once_flagOT_DpOT0_"(ptr noundef nonnull align 4 dereferenceable(4) %0, ptr noundef nonnull align 1 dereferenceable(1) %1, ptr noundef nonnull align 8 dereferenceable(8) %2) #1 personality ptr @__gxx_personality_v0 {
  %4 = alloca ptr, align 8
  %5 = alloca ptr, align 8
  %6 = alloca ptr, align 8
  %7 = alloca %class.anon.91, align 8
  %8 = alloca %"struct.std::once_flag::_Prepare_execution", align 1
  %9 = alloca i32, align 4
  %10 = alloca ptr, align 8
  %11 = alloca i32, align 4
  store ptr %0, ptr %4, align 8, !tbaa !254
  store ptr %1, ptr %5, align 8, !tbaa !145
  store ptr %2, ptr %6, align 8, !tbaa !256
  call void @llvm.lifetime.start.p0(i64 16, ptr %7) #17
  %12 = getelementptr inbounds nuw %class.anon.91, ptr %7, i32 0, i32 0
  %13 = load ptr, ptr %5, align 8, !tbaa !145
  store ptr %13, ptr %12, align 8, !tbaa !145
  %14 = getelementptr inbounds nuw %class.anon.91, ptr %7, i32 0, i32 1
  %15 = load ptr, ptr %6, align 8, !tbaa !256
  store ptr %15, ptr %14, align 8, !tbaa !256
  call void @llvm.lifetime.start.p0(i64 1, ptr %8) #17
  call void @"_ZNSt9once_flag18_Prepare_executionC2IZSt9call_onceIZN10duckdb_re24Prog6GetDFAENS4_9MatchKindEE3$_1JPS4_EEvRS_OT_DpOT0_EUlvE_EERS9_"(ptr noundef nonnull align 1 dereferenceable(1) %8, ptr noundef nonnull align 8 dereferenceable(16) %7)
  call void @llvm.lifetime.start.p0(i64 4, ptr %9) #17
  %16 = load ptr, ptr %4, align 8, !tbaa !254
  %17 = getelementptr inbounds nuw %"struct.std::once_flag", ptr %16, i32 0, i32 0
  %18 = invoke noundef i32 @_ZL14__gthread_oncePiPFvvE(ptr noundef %17, ptr noundef @__once_proxy)
          to label %19 unwind label %25

19:                                               ; preds = %3
  store i32 %18, ptr %9, align 4, !tbaa !46
  %20 = load i32, ptr %9, align 4, !tbaa !46
  %21 = icmp ne i32 %20, 0
  br i1 %21, label %22, label %29

22:                                               ; preds = %19
  %23 = load i32, ptr %9, align 4, !tbaa !46
  invoke void @_ZSt20__throw_system_errori(i32 noundef %23) #20
          to label %24 unwind label %25

24:                                               ; preds = %22
  unreachable

25:                                               ; preds = %22, %3
  %26 = landingpad { ptr, i32 }
          cleanup
  %27 = extractvalue { ptr, i32 } %26, 0
  store ptr %27, ptr %10, align 8
  %28 = extractvalue { ptr, i32 } %26, 1
  store i32 %28, ptr %11, align 4
  call void @llvm.lifetime.end.p0(i64 4, ptr %9) #17
  call void @_ZNSt9once_flag18_Prepare_executionD2Ev(ptr noundef nonnull align 1 dereferenceable(1) %8) #17
  call void @llvm.lifetime.end.p0(i64 1, ptr %8) #17
  call void @llvm.lifetime.end.p0(i64 16, ptr %7) #17
  br label %30

29:                                               ; preds = %19
  call void @llvm.lifetime.end.p0(i64 4, ptr %9) #17
  call void @_ZNSt9once_flag18_Prepare_executionD2Ev(ptr noundef nonnull align 1 dereferenceable(1) %8) #17
  call void @llvm.lifetime.end.p0(i64 1, ptr %8) #17
  call void @llvm.lifetime.end.p0(i64 16, ptr %7) #17
  ret void

30:                                               ; preds = %25
  %31 = load ptr, ptr %10, align 8
  %32 = load i32, ptr %11, align 4
  %33 = insertvalue { ptr, i32 } poison, ptr %31, 0
  %34 = insertvalue { ptr, i32 } %33, i32 %32, 1
  resume { ptr, i32 } %34
}

; Function Attrs: mustprogress uwtable
define internal void @"_ZSt9call_onceIZN10duckdb_re24Prog6GetDFAENS1_9MatchKindEE3$_0JPS1_EEvRSt9once_flagOT_DpOT0_"(ptr noundef nonnull align 4 dereferenceable(4) %0, ptr noundef nonnull align 1 dereferenceable(1) %1, ptr noundef nonnull align 8 dereferenceable(8) %2) #1 personality ptr @__gxx_personality_v0 {
  %4 = alloca ptr, align 8
  %5 = alloca ptr, align 8
  %6 = alloca ptr, align 8
  %7 = alloca %class.anon.88, align 8
  %8 = alloca %"struct.std::once_flag::_Prepare_execution", align 1
  %9 = alloca i32, align 4
  %10 = alloca ptr, align 8
  %11 = alloca i32, align 4
  store ptr %0, ptr %4, align 8, !tbaa !254
  store ptr %1, ptr %5, align 8, !tbaa !145
  store ptr %2, ptr %6, align 8, !tbaa !256
  call void @llvm.lifetime.start.p0(i64 16, ptr %7) #17
  %12 = getelementptr inbounds nuw %class.anon.88, ptr %7, i32 0, i32 0
  %13 = load ptr, ptr %5, align 8, !tbaa !145
  store ptr %13, ptr %12, align 8, !tbaa !145
  %14 = getelementptr inbounds nuw %class.anon.88, ptr %7, i32 0, i32 1
  %15 = load ptr, ptr %6, align 8, !tbaa !256
  store ptr %15, ptr %14, align 8, !tbaa !256
  call void @llvm.lifetime.start.p0(i64 1, ptr %8) #17
  call void @"_ZNSt9once_flag18_Prepare_executionC2IZSt9call_onceIZN10duckdb_re24Prog6GetDFAENS4_9MatchKindEE3$_0JPS4_EEvRS_OT_DpOT0_EUlvE_EERS9_"(ptr noundef nonnull align 1 dereferenceable(1) %8, ptr noundef nonnull align 8 dereferenceable(16) %7)
  call void @llvm.lifetime.start.p0(i64 4, ptr %9) #17
  %16 = load ptr, ptr %4, align 8, !tbaa !254
  %17 = getelementptr inbounds nuw %"struct.std::once_flag", ptr %16, i32 0, i32 0
  %18 = invoke noundef i32 @_ZL14__gthread_oncePiPFvvE(ptr noundef %17, ptr noundef @__once_proxy)
          to label %19 unwind label %25

19:                                               ; preds = %3
  store i32 %18, ptr %9, align 4, !tbaa !46
  %20 = load i32, ptr %9, align 4, !tbaa !46
  %21 = icmp ne i32 %20, 0
  br i1 %21, label %22, label %29

22:                                               ; preds = %19
  %23 = load i32, ptr %9, align 4, !tbaa !46
  invoke void @_ZSt20__throw_system_errori(i32 noundef %23) #20
          to label %24 unwind label %25

24:                                               ; preds = %22
  unreachable

25:                                               ; preds = %22, %3
  %26 = landingpad { ptr, i32 }
          cleanup
  %27 = extractvalue { ptr, i32 } %26, 0
  store ptr %27, ptr %10, align 8
  %28 = extractvalue { ptr, i32 } %26, 1
  store i32 %28, ptr %11, align 4
  call void @llvm.lifetime.end.p0(i64 4, ptr %9) #17
  call void @_ZNSt9once_flag18_Prepare_executionD2Ev(ptr noundef nonnull align 1 dereferenceable(1) %8) #17
  call void @llvm.lifetime.end.p0(i64 1, ptr %8) #17
  call void @llvm.lifetime.end.p0(i64 16, ptr %7) #17
  br label %30

29:                                               ; preds = %19
  call void @llvm.lifetime.end.p0(i64 4, ptr %9) #17
  call void @_ZNSt9once_flag18_Prepare_executionD2Ev(ptr noundef nonnull align 1 dereferenceable(1) %8) #17
  call void @llvm.lifetime.end.p0(i64 1, ptr %8) #17
  call void @llvm.lifetime.end.p0(i64 16, ptr %7) #17
  ret void

30:                                               ; preds = %25
  %31 = load ptr, ptr %10, align 8
  %32 = load i32, ptr %11, align 4
  %33 = insertvalue { ptr, i32 } poison, ptr %31, 0
  %34 = insertvalue { ptr, i32 } %33, i32 %32, 1
  resume { ptr, i32 } %34
}

; Function Attrs: mustprogress uwtable
define hidden noundef ptr @_ZN10duckdb_re24Prog6GetDFAENS0_9MatchKindE(ptr noundef nonnull align 8 dereferenceable(432) %0, i32 noundef %1) #1 align 2 {
  %3 = alloca ptr, align 8
  %4 = alloca ptr, align 8
  %5 = alloca i32, align 4
  %6 = alloca %class.anon, align 1
  %7 = alloca ptr, align 8
  %8 = alloca %class.anon.37, align 1
  %9 = alloca ptr, align 8
  %10 = alloca %class.anon.39, align 1
  %11 = alloca ptr, align 8
  store ptr %0, ptr %4, align 8, !tbaa !12
  store i32 %1, ptr %5, align 4, !tbaa !14
  %12 = load ptr, ptr %4, align 8
  %13 = load i32, ptr %5, align 4, !tbaa !14
  %14 = icmp eq i32 %13, 0
  br i1 %14, label %15, label %19

15:                                               ; preds = %2
  %16 = getelementptr inbounds nuw %"class.duckdb_re2::Prog", ptr %12, i32 0, i32 22
  call void @llvm.lifetime.start.p0(i64 1, ptr %6) #17
  call void @llvm.lifetime.start.p0(i64 8, ptr %7) #17
  store ptr %12, ptr %7, align 8, !tbaa !12
  call void @"_ZSt9call_onceIZN10duckdb_re24Prog6GetDFAENS1_9MatchKindEE3$_0JPS1_EEvRSt9once_flagOT_DpOT0_"(ptr noundef nonnull align 4 dereferenceable(4) %16, ptr noundef nonnull align 1 dereferenceable(1) %6, ptr noundef nonnull align 8 dereferenceable(8) %7)
  call void @llvm.lifetime.end.p0(i64 8, ptr %7) #17
  call void @llvm.lifetime.end.p0(i64 1, ptr %6) #17
  %17 = getelementptr inbounds nuw %"class.duckdb_re2::Prog", ptr %12, i32 0, i32 19
  %18 = load ptr, ptr %17, align 8, !tbaa !252
  store ptr %18, ptr %3, align 8
  br label %30

19:                                               ; preds = %2
  %20 = load i32, ptr %5, align 4, !tbaa !14
  %21 = icmp eq i32 %20, 3
  br i1 %21, label %22, label %26

22:                                               ; preds = %19
  %23 = getelementptr inbounds nuw %"class.duckdb_re2::Prog", ptr %12, i32 0, i32 22
  call void @llvm.lifetime.start.p0(i64 1, ptr %8) #17
  call void @llvm.lifetime.start.p0(i64 8, ptr %9) #17
  store ptr %12, ptr %9, align 8, !tbaa !12
  call void @"_ZSt9call_onceIZN10duckdb_re24Prog6GetDFAENS1_9MatchKindEE3$_1JPS1_EEvRSt9once_flagOT_DpOT0_"(ptr noundef nonnull align 4 dereferenceable(4) %23, ptr noundef nonnull align 1 dereferenceable(1) %8, ptr noundef nonnull align 8 dereferenceable(8) %9)
  call void @llvm.lifetime.end.p0(i64 8, ptr %9) #17
  call void @llvm.lifetime.end.p0(i64 1, ptr %8) #17
  %24 = getelementptr inbounds nuw %"class.duckdb_re2::Prog", ptr %12, i32 0, i32 19
  %25 = load ptr, ptr %24, align 8, !tbaa !252
  store ptr %25, ptr %3, align 8
  br label %30

26:                                               ; preds = %19
  %27 = getelementptr inbounds nuw %"class.duckdb_re2::Prog", ptr %12, i32 0, i32 23
  call void @llvm.lifetime.start.p0(i64 1, ptr %10) #17
  call void @llvm.lifetime.start.p0(i64 8, ptr %11) #17
  store ptr %12, ptr %11, align 8, !tbaa !12
  call void @"_ZSt9call_onceIZN10duckdb_re24Prog6GetDFAENS1_9MatchKindEE3$_2JPS1_EEvRSt9once_flagOT_DpOT0_"(ptr noundef nonnull align 4 dereferenceable(4) %27, ptr noundef nonnull align 1 dereferenceable(1) %10, ptr noundef nonnull align 8 dereferenceable(8) %11)
  call void @llvm.lifetime.end.p0(i64 8, ptr %11) #17
  call void @llvm.lifetime.end.p0(i64 1, ptr %10) #17
  %28 = getelementptr inbounds nuw %"class.duckdb_re2::Prog", ptr %12, i32 0, i32 20
  %29 = load ptr, ptr %28, align 8, !tbaa !253
  store ptr %29, ptr %3, align 8
  br label %30

30:                                               ; preds = %26, %22, %15
  %31 = load ptr, ptr %3, align 8
  ret ptr %31
}

; Function Attrs: mustprogress uwtable
define hidden noundef zeroext i1 @_ZN10duckdb_re24Prog18PossibleMatchRangeEPNSt7__cxx1112basic_stringIcSt11char_traitsIcESaIcEEES7_i(ptr noundef nonnull align 8 dereferenceable(432) %0, ptr noundef %1, ptr noundef %2, i32 noundef %3) #1 align 2 {
  %5 = alloca ptr, align 8
  %6 = alloca ptr, align 8
  %7 = alloca ptr, align 8
  %8 = alloca i32, align 4
  store ptr %0, ptr %5, align 8, !tbaa !12
  store ptr %1, ptr %6, align 8, !tbaa !115
  store ptr %2, ptr %7, align 8, !tbaa !115
  store i32 %3, ptr %8, align 4, !tbaa !46
  %9 = load ptr, ptr %5, align 8
  %10 = call noundef ptr @_ZN10duckdb_re24Prog6GetDFAENS0_9MatchKindE(ptr noundef nonnull align 8 dereferenceable(432) %9, i32 noundef 1)
  %11 = load ptr, ptr %6, align 8, !tbaa !115
  %12 = load ptr, ptr %7, align 8, !tbaa !115
  %13 = load i32, ptr %8, align 4, !tbaa !46
  %14 = call noundef zeroext i1 @_ZN10duckdb_re23DFA18PossibleMatchRangeEPNSt7__cxx1112basic_stringIcSt11char_traitsIcESaIcEEES7_i(ptr noundef nonnull align 8 dereferenceable(296) %10, ptr noundef %11, ptr noundef %12, i32 noundef %13)
  ret i1 %14
}