; Function Attrs: mustprogress uwtable
define hidden noundef zeroext i1 @_ZN10duckdb_re24Prog18PossibleMatchRangeEPNSt7__cxx1112basic_stringIcSt11char_traitsIcESaIcEEES7_i(ptr noundef nonnull align 8 dereferenceable(432) %0, ptr noundef %1, ptr noundef %2, i32 noundef %3) local_unnamed_addr #1 align 2 personality ptr @__gxx_personality_v0 {
  %5 = alloca %class.anon.94, align 8
  %6 = alloca %class.anon.39, align 1
  %7 = alloca ptr, align 8
  %8 = tail call align 8 ptr @llvm.threadlocal.address.p0(ptr align 8 @_ZSt15__once_callable)
  %9 = tail call align 8 ptr @llvm.threadlocal.address.p0(ptr align 8 @_ZSt11__once_call)
  %10 = getelementptr inbounds nuw i8, ptr %0, i64 428
  call void @llvm.lifetime.start.p0(i64 1, ptr nonnull %6) #20
  call void @llvm.lifetime.start.p0(i64 8, ptr nonnull %7) #20
  store ptr %0, ptr %7, align 8, !tbaa !221
  call void @llvm.lifetime.start.p0(i64 16, ptr nonnull %5) #20
  store ptr %6, ptr %5, align 8, !tbaa !222
  %11 = getelementptr inbounds nuw i8, ptr %5, i64 8
  store ptr %7, ptr %11, align 8, !tbaa !223
  store ptr %5, ptr %8, align 8, !tbaa !222
  store ptr @"_ZZNSt9once_flag18_Prepare_executionC1IZSt9call_onceIZN10duckdb_re24Prog6GetDFAENS4_9MatchKindEE3$_2JPS4_EEvRS_OT_DpOT0_EUlvE_EERS9_ENUlvE_8__invokeEv", ptr %9, align 8, !tbaa !222
  %12 = invoke noundef i32 @pthread_once(ptr noundef nonnull align 4 dereferenceable(4) %10, ptr noundef nonnull @__once_proxy)
          to label %_ZL14__gthread_oncePiPFvvE.exit.i6.i unwind label %15

_ZL14__gthread_oncePiPFvvE.exit.i6.i:             ; preds = %4
  %.not.i7.i = icmp eq i32 %12, 0
  br i1 %.not.i7.i, label %_ZN10duckdb_re24Prog6GetDFAENS0_9MatchKindE.exit, label %13

13:                                               ; preds = %_ZL14__gthread_oncePiPFvvE.exit.i6.i
  invoke void @_ZSt20__throw_system_errori(i32 noundef %12) #21
          to label %14 unwind label %15

14:                                               ; preds = %13
  unreachable

15:                                               ; preds = %13, %4
  %16 = landingpad { ptr, i32 }
          cleanup
  store ptr null, ptr %8, align 8, !tbaa !222
  store ptr null, ptr %9, align 8, !tbaa !222
  call void @llvm.lifetime.end.p0(i64 16, ptr nonnull %5) #20
  resume { ptr, i32 } %16

_ZN10duckdb_re24Prog6GetDFAENS0_9MatchKindE.exit: ; preds = %_ZL14__gthread_oncePiPFvvE.exit.i6.i
  store ptr null, ptr %8, align 8, !tbaa !222
  store ptr null, ptr %9, align 8, !tbaa !222
  call void @llvm.lifetime.end.p0(i64 16, ptr nonnull %5) #20
  call void @llvm.lifetime.end.p0(i64 8, ptr nonnull %7) #20
  call void @llvm.lifetime.end.p0(i64 1, ptr nonnull %6) #20
  %17 = getelementptr inbounds nuw i8, ptr %0, i64 160
  %.0.i = load ptr, ptr %17, align 8, !tbaa !225
  %18 = call noundef zeroext i1 @_ZN10duckdb_re23DFA18PossibleMatchRangeEPNSt7__cxx1112basic_stringIcSt11char_traitsIcESaIcEEES7_i(ptr noundef nonnull align 8 dereferenceable(296) %.0.i, ptr noundef %1, ptr noundef %2, i32 noundef %3)
  ret i1 %18
}